; Function Attrs: nounwind uwtable
define internal i32 @iter_traverse(ptr noundef readonly captures(none) %0, ptr noundef readonly captures(none) %1, ptr noundef %2) #0 {
  %4 = getelementptr inbounds nuw i8, ptr %0, i64 24
  %5 = load ptr, ptr %4, align 8, !tbaa !14
  %.not = icmp eq ptr %5, null
  br i1 %.not, label %8, label %6

6:                                                ; preds = %3
  %7 = tail call i32 %1(ptr noundef nonnull %5, ptr noundef %2) #4
  %.not9.not = icmp eq i32 %7, 0
  br i1 %.not9.not, label %8, label %9

8:                                                ; preds = %6, %3
  br label %9

9:                                                ; preds = %6, %8
  %.1 = phi i32 [ %7, %6 ], [ 0, %8 ]
  ret i32 %.1
}